target datalayout = "e-m:e-p270:32:32-p271:32:32-p272:64:64-i64:64-i128:128-f80:128-n8:16:32:64-S128"
target triple = "x86_64-pc-linux-gnu"

%"class.icu_77::internal::LocalOpenPointer" = type { %"class.icu_77::LocalPointerBase" }
%"class.icu_77::LocalPointerBase" = type { ptr }
%"class.icu_77::Locale" = type <{ %"class.icu_77::UObject", [12 x i8], [6 x i8], [4 x i8], [2 x i8], i32, [4 x i8], ptr, [157 x i8], [3 x i8], ptr, i8, [7 x i8] }>
%"class.icu_77::UObject" = type { ptr }

@.str = private unnamed_addr constant [14 x i8] c"decimalFormat\00", align 1
@.str.1 = private unnamed_addr constant [15 x i8] c"currencyFormat\00", align 1
@.str.2 = private unnamed_addr constant [17 x i8] c"accountingFormat\00", align 1
@.str.3 = private unnamed_addr constant [14 x i8] c"percentFormat\00", align 1
@.str.4 = private unnamed_addr constant [17 x i8] c"scientificFormat\00", align 1
@.str.5 = private unnamed_addr constant [1 x i16] zeroinitializer, align 2
@.str.6 = private unnamed_addr constant [5 x i8] c"latn\00", align 1

; Function Attrs: mustprogress nounwind uwtable
define linkonce_odr void @_ZN6icu_7716LocalPointerBaseI15UResourceBundleEC2EPS1_(ptr noundef nonnull align 8 dereferenceable(8) %0, ptr noundef %1) unnamed_addr #0 comdat align 2 {
  %3 = alloca ptr, align 8
  %4 = alloca ptr, align 8
  store ptr %0, ptr %3, align 8, !tbaa !36
  store ptr %1, ptr %4, align 8, !tbaa !34
  %5 = load ptr, ptr %3, align 8
  %6 = getelementptr inbounds nuw %"class.icu_77::LocalPointerBase", ptr %5, i32 0, i32 0
  %7 = load ptr, ptr %4, align 8, !tbaa !34
  store ptr %7, ptr %6, align 8, !tbaa !38
  ret void
}

; Function Attrs: mustprogress nounwind uwtable
define linkonce_odr noundef ptr @_ZNK6icu_7716LocalPointerBaseI15UResourceBundleE8getAliasEv(ptr noundef nonnull align 8 dereferenceable(8) %0) #0 comdat align 2 {
  %2 = alloca ptr, align 8
  store ptr %0, ptr %2, align 8, !tbaa !36
  %3 = load ptr, ptr %2, align 8
  %4 = getelementptr inbounds nuw %"class.icu_77::LocalPointerBase", ptr %3, i32 0, i32 0
  %5 = load ptr, ptr %4, align 8, !tbaa !38
  ret ptr %5
}

; Function Attrs: inlinehint mustprogress nounwind uwtable
define internal noundef signext i8 @_ZL9U_FAILURE10UErrorCode(i32 noundef %0) #2 {
  %2 = alloca i32, align 4
  store i32 %0, ptr %2, align 4, !tbaa !15
  %3 = load i32, ptr %2, align 4, !tbaa !15
  %4 = icmp sgt i32 %3, 0
  %5 = zext i1 %4 to i8
  ret i8 %5
}

; Function Attrs: mustprogress uwtable
define linkonce_odr void @_ZN6icu_778internal16LocalOpenPointerI15UResourceBundleXadL_Z13ures_close_77EEEC2EPS2_(ptr noundef nonnull align 8 dereferenceable(8) %0, ptr noundef %1) unnamed_addr #1 comdat align 2 {
  %3 = alloca ptr, align 8
  %4 = alloca ptr, align 8
  store ptr %0, ptr %3, align 8, !tbaa !32
  store ptr %1, ptr %4, align 8, !tbaa !34
  %5 = load ptr, ptr %3, align 8
  %6 = load ptr, ptr %4, align 8, !tbaa !34
  call void @_ZN6icu_7716LocalPointerBaseI15UResourceBundleEC2EPS1_(ptr noundef nonnull align 8 dereferenceable(8) %5, ptr noundef %6)
  ret void
}

; Function Attrs: inlinehint mustprogress nounwind uwtable
define linkonce_odr noundef ptr @_ZNK6icu_776Locale7getNameEv(ptr noundef nonnull align 8 dereferenceable(217) %0) #2 comdat align 2 {
  %2 = alloca ptr, align 8
  store ptr %0, ptr %2, align 8, !tbaa !23
  %3 = load ptr, ptr %2, align 8
  %4 = getelementptr inbounds nuw %"class.icu_77::Locale", ptr %3, i32 0, i32 7
  %5 = load ptr, ptr %4, align 8, !tbaa !29
  ret ptr %5
}

; Function Attrs: mustprogress uwtable
define noundef ptr @_ZN6icu_776number4impl5utils18getPatternForStyleERKNS_6LocaleEPKcNS1_16CldrPatternStyleER10UErrorCode(ptr noundef nonnull align 8 dereferenceable(217) %0, ptr noundef %1, i32 noundef %2, ptr noundef nonnull align 4 dereferenceable(4) %3) #1 personality ptr @__gxx_personality_v0 {
  %5 = alloca ptr, align 8
  %6 = alloca ptr, align 8
  %7 = alloca ptr, align 8
  %8 = alloca i32, align 4
  %9 = alloca ptr, align 8
  %10 = alloca ptr, align 8
  %11 = alloca %"class.icu_77::internal::LocalOpenPointer", align 8
  %12 = alloca ptr, align 8
  %13 = alloca i32, align 4
  %14 = alloca i32, align 4
  %15 = alloca i32, align 4
  %16 = alloca ptr, align 8
  store ptr %0, ptr %6, align 8, !tbaa !23
  store ptr %1, ptr %7, align 8, !tbaa !17
  store i32 %2, ptr %8, align 4, !tbaa !25
  store ptr %3, ptr %9, align 8, !tbaa !22
  call void @llvm.lifetime.start.p0(i64 8, ptr %10) #12
  %17 = load i32, ptr %8, align 4, !tbaa !25
  switch i32 %17, label %23 [
    i32 0, label %18
    i32 1, label %19
    i32 2, label %20
    i32 3, label %21
    i32 4, label %22
  ]

18:                                               ; preds = %4
  store ptr @.str, ptr %10, align 8, !tbaa !17
  br label %24

19:                                               ; preds = %4
  store ptr @.str.1, ptr %10, align 8, !tbaa !17
  br label %24

20:                                               ; preds = %4
  store ptr @.str.2, ptr %10, align 8, !tbaa !17
  br label %24

21:                                               ; preds = %4
  store ptr @.str.3, ptr %10, align 8, !tbaa !17
  br label %24

22:                                               ; preds = %4
  store ptr @.str.4, ptr %10, align 8, !tbaa !17
  br label %24

23:                                               ; preds = %4
  store ptr @.str, ptr %10, align 8, !tbaa !17
  call void @abort() #14
  unreachable

24:                                               ; preds = %22, %21, %20, %19, %18
  call void @llvm.lifetime.start.p0(i64 8, ptr %11) #12
  %25 = load ptr, ptr %6, align 8, !tbaa !23
  %26 = call noundef ptr @_ZNK6icu_776Locale7getNameEv(ptr noundef nonnull align 8 dereferenceable(217) %25)
  %27 = load ptr, ptr %9, align 8, !tbaa !22
  %28 = call ptr @ures_open_77(ptr noundef null, ptr noundef %26, ptr noundef %27)
  call void @_ZN6icu_778internal16LocalOpenPointerI15UResourceBundleXadL_Z13ures_close_77EEEC2EPS2_(ptr noundef nonnull align 8 dereferenceable(8) %11, ptr noundef %28)
  %29 = load ptr, ptr %9, align 8, !tbaa !22
  %30 = load i32, ptr %29, align 4, !tbaa !15
  %31 = invoke noundef signext i8 @_ZL9U_FAILURE10UErrorCode(i32 noundef %30)
          to label %32 unwind label %35

32:                                               ; preds = %24
  %33 = icmp ne i8 %31, 0
  br i1 %33, label %34, label %39

34:                                               ; preds = %32
  store ptr @.str.5, ptr %5, align 8
  store i32 1, ptr %14, align 4
  br label %83

35:                                               ; preds = %24
  %36 = landingpad { ptr, i32 }
          cleanup
  %37 = extractvalue { ptr, i32 } %36, 0
  store ptr %37, ptr %12, align 8
  %38 = extractvalue { ptr, i32 } %36, 1
  store i32 %38, ptr %13, align 4
  br label %85

39:                                               ; preds = %32
  call void @llvm.lifetime.start.p0(i64 4, ptr %15) #12
  store i32 0, ptr %15, align 4, !tbaa !15
  call void @llvm.lifetime.start.p0(i64 8, ptr %16) #12
  %40 = invoke noundef ptr @_ZNK6icu_7716LocalPointerBaseI15UResourceBundleE8getAliasEv(ptr noundef nonnull align 8 dereferenceable(8) %11)
          to label %41 unwind label %53

41:                                               ; preds = %39
  %42 = load ptr, ptr %7, align 8, !tbaa !17
  %43 = load ptr, ptr %10, align 8, !tbaa !17
  %44 = load ptr, ptr %9, align 8, !tbaa !22
  %45 = invoke noundef ptr @_ZN12_GLOBAL__N_112doGetPatternEP15UResourceBundlePKcS3_R10UErrorCodeS5_(ptr noundef %40, ptr noundef %42, ptr noundef %43, ptr noundef nonnull align 4 dereferenceable(4) %44, ptr noundef nonnull align 4 dereferenceable(4) %15)
          to label %46 unwind label %53

46:                                               ; preds = %41
  store ptr %45, ptr %16, align 8, !tbaa !27
  %47 = load ptr, ptr %9, align 8, !tbaa !22
  %48 = load i32, ptr %47, align 4, !tbaa !15
  %49 = invoke noundef signext i8 @_ZL9U_FAILURE10UErrorCode(i32 noundef %48)
          to label %50 unwind label %53

50:                                               ; preds = %46
  %51 = icmp ne i8 %49, 0
  br i1 %51, label %52, label %57

52:                                               ; preds = %50
  store ptr @.str.5, ptr %5, align 8
  store i32 1, ptr %14, align 4
  br label %82

53:                                               ; preds = %72, %68, %66, %57, %46, %41, %39
  %54 = landingpad { ptr, i32 }
          cleanup
  %55 = extractvalue { ptr, i32 } %54, 0
  store ptr %55, ptr %12, align 8
  %56 = extractvalue { ptr, i32 } %54, 1
  store i32 %56, ptr %13, align 4
  call void @llvm.lifetime.end.p0(i64 8, ptr %16) #12
  call void @llvm.lifetime.end.p0(i64 4, ptr %15) #12
  br label %85

57:                                               ; preds = %50
  %58 = load i32, ptr %15, align 4, !tbaa !15
  %59 = invoke noundef signext i8 @_ZL9U_FAILURE10UErrorCode(i32 noundef %58)
          to label %60 unwind label %53

60:                                               ; preds = %57
  %61 = icmp ne i8 %59, 0
  br i1 %61, label %62, label %80

62:                                               ; preds = %60
  %63 = load ptr, ptr %7, align 8, !tbaa !17
  %64 = call i32 @strcmp(ptr noundef @.str.6, ptr noundef %63) #15
  %65 = icmp ne i32 %64, 0
  br i1 %65, label %66, label %80

66:                                               ; preds = %62
  store i32 0, ptr %15, align 4, !tbaa !15
  %67 = invoke noundef ptr @_ZNK6icu_7716LocalPointerBaseI15UResourceBundleE8getAliasEv(ptr noundef nonnull align 8 dereferenceable(8) %11)
          to label %68 unwind label %53

68:                                               ; preds = %66
  %69 = load ptr, ptr %10, align 8, !tbaa !17
  %70 = load ptr, ptr %9, align 8, !tbaa !22
  %71 = invoke noundef ptr @_ZN12_GLOBAL__N_112doGetPatternEP15UResourceBundlePKcS3_R10UErrorCodeS5_(ptr noundef %67, ptr noundef @.str.6, ptr noundef %69, ptr noundef nonnull align 4 dereferenceable(4) %70, ptr noundef nonnull align 4 dereferenceable(4) %15)
          to label %72 unwind label %53

72:                                               ; preds = %68
  store ptr %71, ptr %16, align 8, !tbaa !27
  %73 = load ptr, ptr %9, align 8, !tbaa !22
  %74 = load i32, ptr %73, align 4, !tbaa !15
  %75 = invoke noundef signext i8 @_ZL9U_FAILURE10UErrorCode(i32 noundef %74)
          to label %76 unwind label %53

76:                                               ; preds = %72
  %77 = icmp ne i8 %75, 0
  br i1 %77, label %78, label %79

78:                                               ; preds = %76
  store ptr @.str.5, ptr %5, align 8
  store i32 1, ptr %14, align 4
  br label %82

79:                                               ; preds = %76
  br label %80

80:                                               ; preds = %79, %62, %60
  %81 = load ptr, ptr %16, align 8, !tbaa !27
  store ptr %81, ptr %5, align 8
  store i32 1, ptr %14, align 4
  br label %82

82:                                               ; preds = %80, %78, %52
  call void @llvm.lifetime.end.p0(i64 8, ptr %16) #12
  call void @llvm.lifetime.end.p0(i64 4, ptr %15) #12
  br label %83

83:                                               ; preds = %82, %34
  call void @_ZN6icu_778internal16LocalOpenPointerI15UResourceBundleXadL_Z13ures_close_77EEED2Ev(ptr noundef nonnull align 8 dereferenceable(8) %11) #12
  call void @llvm.lifetime.end.p0(i64 8, ptr %11) #12
  call void @llvm.lifetime.end.p0(i64 8, ptr %10) #12
  %84 = load ptr, ptr %5, align 8
  ret ptr %84

85:                                               ; preds = %53, %35
  call void @_ZN6icu_778internal16LocalOpenPointerI15UResourceBundleXadL_Z13ures_close_77EEED2Ev(ptr noundef nonnull align 8 dereferenceable(8) %11) #12
  call void @llvm.lifetime.end.p0(i64 8, ptr %11) #12
  call void @llvm.lifetime.end.p0(i64 8, ptr %10) #12
  br label %86

86:                                               ; preds = %85
  %87 = load ptr, ptr %12, align 8
  %88 = load i32, ptr %13, align 4
  %89 = insertvalue { ptr, i32 } poison, ptr %87, 0
  %90 = insertvalue { ptr, i32 } %89, i32 %88, 1
  resume { ptr, i32 } %90
}