; Function Attrs: mustprogress uwtable
define noundef ptr @_ZN6icu_776number4impl5utils18getPatternForStyleERKNS_6LocaleEPKcNS1_16CldrPatternStyleER10UErrorCode(ptr noundef nonnull readonly align 8 captures(none) dereferenceable(217) %0, ptr noundef %1, i32 noundef %2, ptr noundef nonnull align 4 dereferenceable(4) %3) local_unnamed_addr #1 personality ptr @__gxx_personality_v0 {
  %5 = alloca %"class.icu_77::internal::LocalOpenPointer", align 8
  %6 = alloca i32, align 4
  %7 = icmp ult i32 %2, 5
  br i1 %7, label %switch.lookup, label %8

8:                                                ; preds = %4
  tail call void @abort() #16
  unreachable

switch.lookup:                                    ; preds = %4
  %9 = zext nneg i32 %2 to i64
  %switch.gep = getelementptr inbounds nuw [5 x ptr], ptr @switch.table._ZN6icu_776number4impl5utils18getPatternForStyleERKNS_6LocaleEPKcNS1_16CldrPatternStyleER10UErrorCode, i64 0, i64 %9
  %switch.load = load ptr, ptr %switch.gep, align 8
  call void @llvm.lifetime.start.p0(i64 8, ptr nonnull %5) #14
  %10 = getelementptr inbounds nuw i8, ptr %0, i64 40
  %11 = load ptr, ptr %10, align 8, !tbaa !15
  %12 = tail call ptr @ures_open_77(ptr noundef null, ptr noundef %11, ptr noundef nonnull %3)
  store ptr %12, ptr %5, align 8, !tbaa !18
  %13 = load i32, ptr %3, align 4, !tbaa !13
  %14 = icmp slt i32 %13, 1
  br i1 %14, label %15, label %33

15:                                               ; preds = %switch.lookup
  call void @llvm.lifetime.start.p0(i64 4, ptr nonnull %6) #14
  store i32 0, ptr %6, align 4, !tbaa !13
  %16 = invoke fastcc noundef ptr @_ZN12_GLOBAL__N_112doGetPatternEP15UResourceBundlePKcS3_R10UErrorCodeS5_(ptr noundef %12, ptr noundef %1, ptr noundef nonnull %switch.load, ptr noundef nonnull align 4 dereferenceable(4) %3, ptr noundef nonnull align 4 dereferenceable(4) %6)
          to label %17 unwind label %20

17:                                               ; preds = %15
  %18 = load i32, ptr %3, align 4, !tbaa !13
  %19 = icmp slt i32 %18, 1
  br i1 %19, label %22, label %32

20:                                               ; preds = %27, %15
  %21 = landingpad { ptr, i32 }
          cleanup
  call void @llvm.lifetime.end.p0(i64 4, ptr nonnull %6) #14
  call void @_ZN6icu_778internal16LocalOpenPointerI15UResourceBundleXadL_Z13ures_close_77EEED2Ev(ptr noundef nonnull align 8 dereferenceable(8) %5) #14
  call void @llvm.lifetime.end.p0(i64 8, ptr nonnull %5) #14
  resume { ptr, i32 } %21

22:                                               ; preds = %17
  %23 = load i32, ptr %6, align 4, !tbaa !13
  %24 = icmp slt i32 %23, 1
  br i1 %24, label %32, label %25

25:                                               ; preds = %22
  %26 = call i32 @strcmp(ptr noundef nonnull dereferenceable(5) @.str.6, ptr noundef nonnull dereferenceable(1) %1) #17
  %.not19 = icmp eq i32 %26, 0
  br i1 %.not19, label %32, label %27

27:                                               ; preds = %25
  store i32 0, ptr %6, align 4, !tbaa !13
  %28 = invoke fastcc noundef ptr @_ZN12_GLOBAL__N_112doGetPatternEP15UResourceBundlePKcS3_R10UErrorCodeS5_(ptr noundef %12, ptr noundef nonnull @.str.6, ptr noundef nonnull %switch.load, ptr noundef nonnull align 4 dereferenceable(4) %3, ptr noundef nonnull align 4 dereferenceable(4) %6)
          to label %29 unwind label %20

29:                                               ; preds = %27
  %30 = load i32, ptr %3, align 4, !tbaa !13
  %31 = icmp slt i32 %30, 1
  %spec.select = select i1 %31, ptr %28, ptr @.str.5
  br label %32

32:                                               ; preds = %29, %22, %25, %17
  %.1 = phi ptr [ @.str.5, %17 ], [ %16, %25 ], [ %16, %22 ], [ %spec.select, %29 ]
  call void @llvm.lifetime.end.p0(i64 4, ptr nonnull %6) #14
  br label %33

33:                                               ; preds = %switch.lookup, %32
  %.015 = phi ptr [ @.str.5, %switch.lookup ], [ %.1, %32 ]
  %.not.i = icmp eq ptr %12, null
  br i1 %.not.i, label %_ZN6icu_778internal16LocalOpenPointerI15UResourceBundleXadL_Z13ures_close_77EEED2Ev.exit, label %34

34:                                               ; preds = %33
  invoke void @ures_close_77(ptr noundef nonnull %12)
          to label %_ZN6icu_778internal16LocalOpenPointerI15UResourceBundleXadL_Z13ures_close_77EEED2Ev.exit unwind label %35

35:                                               ; preds = %34
  %36 = landingpad { ptr, i32 }
          catch ptr null
  %37 = extractvalue { ptr, i32 } %36, 0
  call void @__clang_call_terminate(ptr %37) #16
  unreachable

_ZN6icu_778internal16LocalOpenPointerI15UResourceBundleXadL_Z13ures_close_77EEED2Ev.exit: ; preds = %33, %34
  call void @llvm.lifetime.end.p0(i64 8, ptr nonnull %5) #14
  ret ptr %.015
}